target datalayout = "e-m:e-p270:32:32-p271:32:32-p272:64:64-i64:64-i128:128-f80:128-n8:16:32:64-S128"
target triple = "x86_64-pc-linux-gnu"

%struct._zend_array = type { %struct._zend_refcounted_h, %union.anon.0, i32, %union.anon.1, i32, i32, i32, i32, i64, ptr }
%struct._zend_refcounted_h = type { i32, %union.anon }
%union.anon = type { i32 }
%union.anon.0 = type { i32 }
%union.anon.1 = type { ptr }
%struct._zval_struct = type { %union._zend_value, %union.anon.3, %union.anon.6 }
%union._zend_value = type { i64 }
%union.anon.3 = type { i32 }
%union.anon.6 = type { i32 }
%struct._Bucket = type { %struct._zval_struct, i64, ptr }

; Function Attrs: nounwind uwtable
define void @zend_hash_discard(ptr noundef %0, i32 noundef %1) #0 {
  %3 = alloca ptr, align 8
  %4 = alloca ptr, align 8
  %5 = alloca i32, align 4
  %6 = alloca ptr, align 8
  %7 = alloca ptr, align 8
  %8 = alloca ptr, align 8
  %9 = alloca i32, align 4
  store ptr %0, ptr %4, align 8
  store i32 %1, ptr %5, align 4
  %10 = load ptr, ptr %4, align 8
  %11 = getelementptr inbounds %struct._zend_array, ptr %10, i32 0, i32 1
  %12 = load i32, ptr %11, align 8
  %13 = and i32 %12, 4
  %14 = icmp ne i32 %13, 0
  %15 = xor i1 %14, true
  call void @llvm.assume(i1 %15)
  %16 = load ptr, ptr %4, align 8
  %17 = getelementptr inbounds %struct._zend_array, ptr %16, i32 0, i32 3
  %18 = load ptr, ptr %17, align 8
  store ptr %18, ptr %8, align 8
  %19 = load ptr, ptr %8, align 8
  %20 = load ptr, ptr %4, align 8
  %21 = getelementptr inbounds %struct._zend_array, ptr %20, i32 0, i32 4
  %22 = load i32, ptr %21, align 8
  %23 = zext i32 %22 to i64
  %24 = getelementptr inbounds %struct._Bucket, ptr %19, i64 %23
  store ptr %24, ptr %6, align 8
  %25 = load ptr, ptr %8, align 8
  %26 = load i32, ptr %5, align 4
  %27 = zext i32 %26 to i64
  %28 = getelementptr inbounds %struct._Bucket, ptr %25, i64 %27
  store ptr %28, ptr %7, align 8
  %29 = load i32, ptr %5, align 4
  %30 = load ptr, ptr %4, align 8
  %31 = getelementptr inbounds %struct._zend_array, ptr %30, i32 0, i32 4
  store i32 %29, ptr %31, align 8
  br label %32

32:                                               ; preds = %52, %51, %2
  %33 = load ptr, ptr %6, align 8
  %34 = load ptr, ptr %7, align 8
  %35 = icmp ne ptr %33, %34
  br i1 %35, label %36, label %74

36:                                               ; preds = %32
  %37 = load ptr, ptr %6, align 8
  %38 = getelementptr inbounds %struct._Bucket, ptr %37, i32 -1
  store ptr %38, ptr %6, align 8
  %39 = load ptr, ptr %6, align 8
  %40 = getelementptr inbounds %struct._Bucket, ptr %39, i32 0, i32 0
  store ptr %40, ptr %3, align 8
  %41 = load ptr, ptr %3, align 8
  %42 = getelementptr inbounds %struct._zval_struct, ptr %41, i32 0, i32 1
  %43 = load i8, ptr %42, align 8
  %44 = zext i8 %43 to i32
  %45 = icmp eq i32 %44, 0
  %46 = xor i1 %45, true
  %47 = xor i1 %46, true
  %48 = zext i1 %47 to i32
  %49 = sext i32 %48 to i64
  %50 = icmp ne i64 %49, 0
  br i1 %50, label %51, label %52

51:                                               ; preds = %36
  br label %32

52:                                               ; preds = %36
  %53 = load ptr, ptr %4, align 8
  %54 = getelementptr inbounds %struct._zend_array, ptr %53, i32 0, i32 5
  %55 = load i32, ptr %54, align 4
  %56 = add i32 %55, -1
  store i32 %56, ptr %54, align 4
  %57 = load ptr, ptr %6, align 8
  %58 = getelementptr inbounds %struct._Bucket, ptr %57, i32 0, i32 1
  %59 = load i64, ptr %58, align 8
  %60 = load ptr, ptr %4, align 8
  %61 = getelementptr inbounds %struct._zend_array, ptr %60, i32 0, i32 2
  %62 = load i32, ptr %61, align 4
  %63 = zext i32 %62 to i64
  %64 = or i64 %59, %63
  %65 = trunc i64 %64 to i32
  store i32 %65, ptr %9, align 4
  %66 = load ptr, ptr %6, align 8
  %67 = getelementptr inbounds %struct._Bucket, ptr %66, i32 0, i32 0
  %68 = getelementptr inbounds %struct._zval_struct, ptr %67, i32 0, i32 2
  %69 = load i32, ptr %68, align 4
  %70 = load ptr, ptr %8, align 8
  %71 = load i32, ptr %9, align 4
  %72 = sext i32 %71 to i64
  %73 = getelementptr inbounds i32, ptr %70, i64 %72
  store i32 %69, ptr %73, align 4
  br label %32

74:                                               ; preds = %32
  ret void
}