; Function Attrs: nofree norecurse nosync nounwind memory(readwrite, inaccessiblemem: write) uwtable
define void @zend_hash_discard(ptr nocapture noundef %0, i32 noundef %1) local_unnamed_addr #10 {
  %3 = getelementptr inbounds i8, ptr %0, i64 8
  %4 = load i32, ptr %3, align 8
  %5 = and i32 %4, 4
  %.not = icmp eq i32 %5, 0
  tail call void @llvm.assume(i1 %.not)
  %6 = getelementptr inbounds i8, ptr %0, i64 16
  %7 = load ptr, ptr %6, align 8
  %8 = getelementptr inbounds i8, ptr %0, i64 24
  %9 = load i32, ptr %8, align 8
  %10 = zext i32 %1 to i64
  %11 = getelementptr inbounds %struct._Bucket, ptr %7, i64 %10
  store i32 %1, ptr %8, align 8
  %.not1819 = icmp eq i32 %9, %1
  br i1 %.not1819, label %._crit_edge, label %.lr.ph

.lr.ph:                                           ; preds = %2
  %12 = zext i32 %9 to i64
  %13 = getelementptr inbounds %struct._Bucket, ptr %7, i64 %12
  %14 = getelementptr inbounds i8, ptr %0, i64 28
  %15 = getelementptr inbounds i8, ptr %0, i64 12
  br label %16

16:                                               ; preds = %.lr.ph, %.backedge
  %.020 = phi ptr [ %13, %.lr.ph ], [ %17, %.backedge ]
  %17 = getelementptr inbounds i8, ptr %.020, i64 -32
  %18 = getelementptr inbounds i8, ptr %.020, i64 -24
  %19 = load i8, ptr %18, align 8
  %20 = icmp eq i8 %19, 0
  br i1 %20, label %.backedge, label %21

21:                                               ; preds = %16
  %22 = load i32, ptr %14, align 4
  %23 = add i32 %22, -1
  store i32 %23, ptr %14, align 4
  %24 = getelementptr inbounds i8, ptr %.020, i64 -16
  %25 = load i64, ptr %24, align 8
  %26 = load i32, ptr %15, align 4
  %27 = trunc i64 %25 to i32
  %28 = or i32 %26, %27
  %29 = getelementptr inbounds i8, ptr %.020, i64 -20
  %30 = load i32, ptr %29, align 4
  %31 = sext i32 %28 to i64
  %32 = getelementptr inbounds i32, ptr %7, i64 %31
  store i32 %30, ptr %32, align 4
  br label %.backedge

.backedge:                                        ; preds = %21, %16
  %.not18 = icmp eq ptr %17, %11
  br i1 %.not18, label %._crit_edge, label %16

._crit_edge:                                      ; preds = %.backedge, %2
  ret void
}